target datalayout = "e-m:e-p270:32:32-p271:32:32-p272:64:64-i64:64-i128:128-f80:128-n8:16:32:64-S128"
target triple = "x86_64-unknown-linux-gnu"

%"class.QuantLib::Date" = type { i64 }
%"class.QuantLib::Period" = type { i32, i32 }
%"struct.std::pair" = type { %"class.QuantLib::Date", %"class.QuantLib::Date" }

; Function Attrs: mustprogress nounwind uwtable
define linkonce_odr noundef i32 @_ZNK8QuantLib6Period5unitsEv(ptr noundef nonnull align 4 dereferenceable(8) %this) #1 comdat align 2 {
entry:
  %this.addr = alloca ptr, align 8
  store ptr %this, ptr %this.addr, align 8, !tbaa !3
  %this1 = load ptr, ptr %this.addr, align 8
  %units_ = getelementptr inbounds nuw %"class.QuantLib::Period", ptr %this1, i32 0, i32 1
  %0 = load i32, ptr %units_, align 4, !tbaa !55
  ret i32 %0
}

; Function Attrs: mustprogress nounwind uwtable
define linkonce_odr noundef i32 @_ZNK8QuantLib6Period6lengthEv(ptr noundef nonnull align 4 dereferenceable(8) %this) #1 comdat align 2 {
entry:
  %this.addr = alloca ptr, align 8
  store ptr %this, ptr %this.addr, align 8, !tbaa !3
  %this1 = load ptr, ptr %this.addr, align 8
  %length_ = getelementptr inbounds nuw %"class.QuantLib::Period", ptr %this1, i32 0, i32 0
  %0 = load i32, ptr %length_, align 4, !tbaa !54
  ret i32 %0
}

; Function Attrs: inlinehint mustprogress uwtable
define linkonce_odr i64 @_ZNK8QuantLib4DatemiERKNS_6PeriodE(ptr noundef nonnull align 8 dereferenceable(8) %this, ptr noundef nonnull align 4 dereferenceable(8) %p) #4 comdat align 2 {
entry:
  %retval = alloca %"class.QuantLib::Date", align 8
  %this.addr = alloca ptr, align 8
  %p.addr = alloca ptr, align 8
  store ptr %this, ptr %this.addr, align 8, !tbaa !3
  store ptr %p, ptr %p.addr, align 8, !tbaa !3
  %this1 = load ptr, ptr %this.addr, align 8
  %0 = load ptr, ptr %p.addr, align 8, !tbaa !3
  %call = call noundef i32 @_ZNK8QuantLib6Period6lengthEv(ptr noundef nonnull align 4 dereferenceable(8) %0)
  %sub = sub nsw i32 0, %call
  %1 = load ptr, ptr %p.addr, align 8, !tbaa !3
  %call2 = call noundef i32 @_ZNK8QuantLib6Period5unitsEv(ptr noundef nonnull align 4 dereferenceable(8) %1)
  %call3 = call i64 @_ZN8QuantLib4Date7advanceERKS0_iNS_8TimeUnitE(ptr noundef nonnull align 8 dereferenceable(8) %this1, i32 noundef %sub, i32 noundef %call2)
  %coerce.dive = getelementptr inbounds nuw %"class.QuantLib::Date", ptr %retval, i32 0, i32 0
  store i64 %call3, ptr %coerce.dive, align 8
  %coerce.dive4 = getelementptr inbounds nuw %"class.QuantLib::Date", ptr %retval, i32 0, i32 0
  %2 = load i64, ptr %coerce.dive4, align 8
  ret i64 %2
}

; Function Attrs: inlinehint mustprogress uwtable
define linkonce_odr noundef zeroext i1 @_ZN8QuantLibeqERKNS_6PeriodES2_(ptr noundef nonnull align 4 dereferenceable(8) %p1, ptr noundef nonnull align 4 dereferenceable(8) %p2) #4 comdat {
entry:
  %p1.addr = alloca ptr, align 8
  %p2.addr = alloca ptr, align 8
  store ptr %p1, ptr %p1.addr, align 8, !tbaa !3
  store ptr %p2, ptr %p2.addr, align 8, !tbaa !3
  %0 = load ptr, ptr %p1.addr, align 8, !tbaa !3
  %1 = load ptr, ptr %p2.addr, align 8, !tbaa !3
  %call = call noundef zeroext i1 @_ZN8QuantLibltERKNS_6PeriodES2_(ptr noundef nonnull align 4 dereferenceable(8) %0, ptr noundef nonnull align 4 dereferenceable(8) %1)
  br i1 %call, label %lor.end, label %lor.rhs

lor.rhs:                                          ; preds = %entry
  %2 = load ptr, ptr %p2.addr, align 8, !tbaa !3
  %3 = load ptr, ptr %p1.addr, align 8, !tbaa !3
  %call1 = call noundef zeroext i1 @_ZN8QuantLibltERKNS_6PeriodES2_(ptr noundef nonnull align 4 dereferenceable(8) %2, ptr noundef nonnull align 4 dereferenceable(8) %3)
  br label %lor.end

lor.end:                                          ; preds = %lor.rhs, %entry
  %4 = phi i1 [ true, %entry ], [ %call1, %lor.rhs ]
  %lnot = xor i1 %4, true
  ret i1 %lnot
}

; Function Attrs: mustprogress nounwind uwtable
define linkonce_odr void @_ZN8QuantLib6PeriodC2EiNS_8TimeUnitE(ptr noundef nonnull align 4 dereferenceable(8) %this, i32 noundef %n, i32 noundef %units) unnamed_addr #1 comdat align 2 {
entry:
  %this.addr = alloca ptr, align 8
  %n.addr = alloca i32, align 4
  %units.addr = alloca i32, align 4
  store ptr %this, ptr %this.addr, align 8, !tbaa !3
  store i32 %n, ptr %n.addr, align 4, !tbaa !31
  store i32 %units, ptr %units.addr, align 4, !tbaa !44
  %this1 = load ptr, ptr %this.addr, align 8
  %length_ = getelementptr inbounds nuw %"class.QuantLib::Period", ptr %this1, i32 0, i32 0
  %0 = load i32, ptr %n.addr, align 4, !tbaa !31
  store i32 %0, ptr %length_, align 4, !tbaa !54
  %units_ = getelementptr inbounds nuw %"class.QuantLib::Period", ptr %this1, i32 0, i32 1
  %1 = load i32, ptr %units.addr, align 4, !tbaa !44
  store i32 %1, ptr %units_, align 4, !tbaa !55
  ret void
}

; Function Attrs: mustprogress uwtable
define noundef double @_ZNK8QuantLib29YoYOptionletVolatilitySurface10volatilityERKNS_4DateEdRKNS_6PeriodEb(ptr noundef nonnull align 8 dereferenceable(112) %this, ptr noundef nonnull align 8 dereferenceable(8) %maturityDate, double noundef %strike, ptr noundef nonnull align 4 dereferenceable(8) %obsLag, i1 noundef zeroext %extrapolate) #2 align 2 {
entry:
  %retval = alloca double, align 8
  %this.addr = alloca ptr, align 8
  %maturityDate.addr = alloca ptr, align 8
  %strike.addr = alloca double, align 8
  %obsLag.addr = alloca ptr, align 8
  %extrapolate.addr = alloca i8, align 1
  %useLag = alloca %"class.QuantLib::Period", align 4
  %ref.tmp = alloca %"class.QuantLib::Period", align 4
  %ref.tmp2 = alloca %"class.QuantLib::Period", align 4
  %ref.tmp8 = alloca %"class.QuantLib::Date", align 8
  %t = alloca double, align 8
  %ref.tmp10 = alloca %"class.QuantLib::Date", align 8
  %cleanup.dest.slot = alloca i32, align 4
  %dd = alloca %"struct.std::pair", align 8
  %ref.tmp17 = alloca %"class.QuantLib::Date", align 8
  %t25 = alloca double, align 8
  store ptr %this, ptr %this.addr, align 8, !tbaa !3
  store ptr %maturityDate, ptr %maturityDate.addr, align 8, !tbaa !3
  store double %strike, ptr %strike.addr, align 8, !tbaa !38
  store ptr %obsLag, ptr %obsLag.addr, align 8, !tbaa !3
  %storedv = zext i1 %extrapolate to i8
  store i8 %storedv, ptr %extrapolate.addr, align 1, !tbaa !35
  %this1 = load ptr, ptr %this.addr, align 8
  call void @llvm.lifetime.start.p0(i64 8, ptr %useLag) #12
  %0 = load ptr, ptr %obsLag.addr, align 8, !tbaa !3
  call void @llvm.memcpy.p0.p0.i64(ptr align 4 %useLag, ptr align 4 %0, i64 8, i1 false), !tbaa.struct !43
  %1 = load ptr, ptr %obsLag.addr, align 8, !tbaa !3
  call void @llvm.lifetime.start.p0(i64 8, ptr %ref.tmp) #12
  call void @_ZN8QuantLib6PeriodC2EiNS_8TimeUnitE(ptr noundef nonnull align 4 dereferenceable(8) %ref.tmp, i32 noundef -1, i32 noundef 0)
  %call = call noundef zeroext i1 @_ZN8QuantLibeqERKNS_6PeriodES2_(ptr noundef nonnull align 4 dereferenceable(8) %1, ptr noundef nonnull align 4 dereferenceable(8) %ref.tmp)
  call void @llvm.lifetime.end.p0(i64 8, ptr %ref.tmp) #12
  br i1 %call, label %if.then, label %if.end

if.then:                                          ; preds = %entry
  call void @llvm.lifetime.start.p0(i64 8, ptr %ref.tmp2) #12
  %vtable = load ptr, ptr %this1, align 8, !tbaa !12
  %vfn = getelementptr inbounds ptr, ptr %vtable, i64 16
  %2 = load ptr, ptr %vfn, align 8
  %call3 = call i64 %2(ptr noundef nonnull align 8 dereferenceable(112) %this1)
  store i64 %call3, ptr %ref.tmp2, align 4
  call void @llvm.memcpy.p0.p0.i64(ptr align 4 %useLag, ptr align 4 %ref.tmp2, i64 8, i1 false), !tbaa.struct !43
  call void @llvm.lifetime.end.p0(i64 8, ptr %ref.tmp2) #12
  br label %if.end

if.end:                                           ; preds = %if.then, %entry
  %vtable4 = load ptr, ptr %this1, align 8, !tbaa !12
  %vfn5 = getelementptr inbounds ptr, ptr %vtable4, i64 18
  %3 = load ptr, ptr %vfn5, align 8
  %call6 = call noundef zeroext i1 %3(ptr noundef nonnull align 8 dereferenceable(112) %this1)
  br i1 %call6, label %if.then7, label %if.else

if.then7:                                         ; preds = %if.end
  call void @llvm.lifetime.start.p0(i64 8, ptr %ref.tmp8) #12
  %4 = load ptr, ptr %maturityDate.addr, align 8, !tbaa !3
  %call9 = call i64 @_ZNK8QuantLib4DatemiERKNS_6PeriodE(ptr noundef nonnull align 8 dereferenceable(8) %4, ptr noundef nonnull align 4 dereferenceable(8) %useLag)
  %coerce.dive = getelementptr inbounds nuw %"class.QuantLib::Date", ptr %ref.tmp8, i32 0, i32 0
  store i64 %call9, ptr %coerce.dive, align 8
  %5 = load double, ptr %strike.addr, align 8, !tbaa !38
  %6 = load i8, ptr %extrapolate.addr, align 1, !tbaa !35, !range !46, !noundef !47
  %loadedv = trunc i8 %6 to i1
  call void @_ZNK8QuantLib29YoYOptionletVolatilitySurface10checkRangeERKNS_4DateEdb(ptr noundef nonnull align 8 dereferenceable(112) %this1, ptr noundef nonnull align 8 dereferenceable(8) %ref.tmp8, double noundef %5, i1 noundef zeroext %loadedv)
  call void @llvm.lifetime.end.p0(i64 8, ptr %ref.tmp8) #12
  call void @llvm.lifetime.start.p0(i64 8, ptr %t) #12
  call void @llvm.lifetime.start.p0(i64 8, ptr %ref.tmp10) #12
  %7 = load ptr, ptr %maturityDate.addr, align 8, !tbaa !3
  %call11 = call i64 @_ZNK8QuantLib4DatemiERKNS_6PeriodE(ptr noundef nonnull align 8 dereferenceable(8) %7, ptr noundef nonnull align 4 dereferenceable(8) %useLag)
  %coerce.dive12 = getelementptr inbounds nuw %"class.QuantLib::Date", ptr %ref.tmp10, i32 0, i32 0
  store i64 %call11, ptr %coerce.dive12, align 8
  %call13 = call noundef double @_ZNK8QuantLib13TermStructure17timeFromReferenceERKNS_4DateE(ptr noundef nonnull align 8 dereferenceable(64) %this1, ptr noundef nonnull align 8 dereferenceable(8) %ref.tmp10)
  call void @llvm.lifetime.end.p0(i64 8, ptr %ref.tmp10) #12
  store double %call13, ptr %t, align 8, !tbaa !38
  %8 = load double, ptr %t, align 8, !tbaa !38
  %9 = load double, ptr %strike.addr, align 8, !tbaa !38
  %vtable14 = load ptr, ptr %this1, align 8, !tbaa !12
  %vfn15 = getelementptr inbounds ptr, ptr %vtable14, i64 24
  %10 = load ptr, ptr %vfn15, align 8
  %call16 = call noundef double %10(ptr noundef nonnull align 8 dereferenceable(112) %this1, double noundef %8, double noundef %9)
  store double %call16, ptr %retval, align 8
  store i32 1, ptr %cleanup.dest.slot, align 4
  call void @llvm.lifetime.end.p0(i64 8, ptr %t) #12
  br label %cleanup

if.else:                                          ; preds = %if.end
  call void @llvm.lifetime.start.p0(i64 16, ptr %dd) #12
  call void @llvm.lifetime.start.p0(i64 8, ptr %ref.tmp17) #12
  %11 = load ptr, ptr %maturityDate.addr, align 8, !tbaa !3
  %call18 = call i64 @_ZNK8QuantLib4DatemiERKNS_6PeriodE(ptr noundef nonnull align 8 dereferenceable(8) %11, ptr noundef nonnull align 4 dereferenceable(8) %useLag)
  %coerce.dive19 = getelementptr inbounds nuw %"class.QuantLib::Date", ptr %ref.tmp17, i32 0, i32 0
  store i64 %call18, ptr %coerce.dive19, align 8
  %vtable20 = load ptr, ptr %this1, align 8, !tbaa !12
  %vfn21 = getelementptr inbounds ptr, ptr %vtable20, i64 17
  %12 = load ptr, ptr %vfn21, align 8
  %call22 = call noundef i32 %12(ptr noundef nonnull align 8 dereferenceable(112) %this1)
  %call23 = call { i64, i64 } @_ZN8QuantLib15inflationPeriodERKNS_4DateENS_9FrequencyE(ptr noundef nonnull align 8 dereferenceable(8) %ref.tmp17, i32 noundef %call22)
  %13 = getelementptr inbounds nuw { i64, i64 }, ptr %dd, i32 0, i32 0
  %14 = extractvalue { i64, i64 } %call23, 0
  store i64 %14, ptr %13, align 8
  %15 = getelementptr inbounds nuw { i64, i64 }, ptr %dd, i32 0, i32 1
  %16 = extractvalue { i64, i64 } %call23, 1
  store i64 %16, ptr %15, align 8
  call void @llvm.lifetime.end.p0(i64 8, ptr %ref.tmp17) #12
  %first = getelementptr inbounds nuw %"struct.std::pair", ptr %dd, i32 0, i32 0
  %17 = load double, ptr %strike.addr, align 8, !tbaa !38
  %18 = load i8, ptr %extrapolate.addr, align 1, !tbaa !35, !range !46, !noundef !47
  %loadedv24 = trunc i8 %18 to i1
  call void @_ZNK8QuantLib29YoYOptionletVolatilitySurface10checkRangeERKNS_4DateEdb(ptr noundef nonnull align 8 dereferenceable(112) %this1, ptr noundef nonnull align 8 dereferenceable(8) %first, double noundef %17, i1 noundef zeroext %loadedv24)
  call void @llvm.lifetime.start.p0(i64 8, ptr %t25) #12
  %first26 = getelementptr inbounds nuw %"struct.std::pair", ptr %dd, i32 0, i32 0
  %call27 = call noundef double @_ZNK8QuantLib13TermStructure17timeFromReferenceERKNS_4DateE(ptr noundef nonnull align 8 dereferenceable(64) %this1, ptr noundef nonnull align 8 dereferenceable(8) %first26)
  store double %call27, ptr %t25, align 8, !tbaa !38
  %19 = load double, ptr %t25, align 8, !tbaa !38
  %20 = load double, ptr %strike.addr, align 8, !tbaa !38
  %vtable28 = load ptr, ptr %this1, align 8, !tbaa !12
  %vfn29 = getelementptr inbounds ptr, ptr %vtable28, i64 24
  %21 = load ptr, ptr %vfn29, align 8
  %call30 = call noundef double %21(ptr noundef nonnull align 8 dereferenceable(112) %this1, double noundef %19, double noundef %20)
  store double %call30, ptr %retval, align 8
  store i32 1, ptr %cleanup.dest.slot, align 4
  call void @llvm.lifetime.end.p0(i64 8, ptr %t25) #12
  call void @llvm.lifetime.end.p0(i64 16, ptr %dd) #12
  br label %cleanup

cleanup:                                          ; preds = %if.else, %if.then7
  call void @llvm.lifetime.end.p0(i64 8, ptr %useLag) #12
  %22 = load double, ptr %retval, align 8
  ret double %22
}