; Function Attrs: mustprogress uwtable
define noundef double @_ZNK8QuantLib29YoYOptionletVolatilitySurface10volatilityERKNS_4DateEdRKNS_6PeriodEb(ptr noundef nonnull align 8 dereferenceable(112) %this, ptr noundef nonnull align 8 dereferenceable(8) %maturityDate, double noundef %strike, ptr noundef nonnull align 4 dereferenceable(8) %obsLag, i1 noundef zeroext %extrapolate) local_unnamed_addr #6 align 2 {
entry:
  %ref.tmp = alloca %"class.QuantLib::Period", align 4
  %ref.tmp8 = alloca %"class.QuantLib::Date", align 8
  %ref.tmp10 = alloca %"class.QuantLib::Date", align 8
  %dd = alloca %"struct.std::pair", align 8
  %ref.tmp17 = alloca %"class.QuantLib::Date", align 8
  %0 = load i64, ptr %obsLag, align 4
  call void @llvm.lifetime.start.p0(i64 8, ptr nonnull %ref.tmp) #24
  store i32 -1, ptr %ref.tmp, align 4, !tbaa !67
  %units_.i = getelementptr inbounds nuw i8, ptr %ref.tmp, i64 4
  store i32 0, ptr %units_.i, align 4, !tbaa !68
  %call.i = call noundef zeroext i1 @_ZN8QuantLibltERKNS_6PeriodES2_(ptr noundef nonnull align 4 dereferenceable(8) %obsLag, ptr noundef nonnull align 4 dereferenceable(8) %ref.tmp)
  br i1 %call.i, label %_ZN8QuantLibeqERKNS_6PeriodES2_.exit.thread, label %_ZN8QuantLibeqERKNS_6PeriodES2_.exit

_ZN8QuantLibeqERKNS_6PeriodES2_.exit.thread:      ; preds = %entry
  call void @llvm.lifetime.end.p0(i64 8, ptr nonnull %ref.tmp) #24
  br label %if.end

_ZN8QuantLibeqERKNS_6PeriodES2_.exit:             ; preds = %entry
  %call1.i = call noundef zeroext i1 @_ZN8QuantLibltERKNS_6PeriodES2_(ptr noundef nonnull align 4 dereferenceable(8) %ref.tmp, ptr noundef nonnull align 4 dereferenceable(8) %obsLag)
  call void @llvm.lifetime.end.p0(i64 8, ptr nonnull %ref.tmp) #24
  br i1 %call1.i, label %if.end, label %if.then

if.then:                                          ; preds = %_ZN8QuantLibeqERKNS_6PeriodES2_.exit
  %vtable = load ptr, ptr %this, align 8, !tbaa !28
  %vfn = getelementptr inbounds i8, ptr %vtable, i64 128
  %1 = load ptr, ptr %vfn, align 8
  %call3 = call i64 %1(ptr noundef nonnull align 8 dereferenceable(112) %this)
  br label %if.end

if.end:                                           ; preds = %_ZN8QuantLibeqERKNS_6PeriodES2_.exit.thread, %if.then, %_ZN8QuantLibeqERKNS_6PeriodES2_.exit
  %useLag.sroa.7.0.in.in = phi i64 [ %call3, %if.then ], [ %0, %_ZN8QuantLibeqERKNS_6PeriodES2_.exit ], [ %0, %_ZN8QuantLibeqERKNS_6PeriodES2_.exit.thread ]
  %useLag.sroa.0.0 = trunc i64 %useLag.sroa.7.0.in.in to i32
  %useLag.sroa.7.0.in = lshr i64 %useLag.sroa.7.0.in.in, 32
  %useLag.sroa.7.0 = trunc nuw i64 %useLag.sroa.7.0.in to i32
  %vtable4 = load ptr, ptr %this, align 8, !tbaa !28
  %vfn5 = getelementptr inbounds i8, ptr %vtable4, i64 144
  %2 = load ptr, ptr %vfn5, align 8
  %call6 = call noundef zeroext i1 %2(ptr noundef nonnull align 8 dereferenceable(112) %this)
  br i1 %call6, label %if.then7, label %if.else

if.then7:                                         ; preds = %if.end
  call void @llvm.lifetime.start.p0(i64 8, ptr nonnull %ref.tmp8) #24
  %sub.i = sub nsw i32 0, %useLag.sroa.0.0
  %call3.i = call i64 @_ZN8QuantLib4Date7advanceERKS0_iNS_8TimeUnitE(ptr noundef nonnull align 8 dereferenceable(8) %maturityDate, i32 noundef %sub.i, i32 noundef %useLag.sroa.7.0)
  store i64 %call3.i, ptr %ref.tmp8, align 8
  call void @_ZNK8QuantLib29YoYOptionletVolatilitySurface10checkRangeERKNS_4DateEdb(ptr noundef nonnull align 8 dereferenceable(112) %this, ptr noundef nonnull align 8 dereferenceable(8) %ref.tmp8, double noundef %strike, i1 noundef zeroext %extrapolate)
  call void @llvm.lifetime.end.p0(i64 8, ptr nonnull %ref.tmp8) #24
  call void @llvm.lifetime.start.p0(i64 8, ptr nonnull %ref.tmp10) #24
  %call3.i10 = call i64 @_ZN8QuantLib4Date7advanceERKS0_iNS_8TimeUnitE(ptr noundef nonnull align 8 dereferenceable(8) %maturityDate, i32 noundef %sub.i, i32 noundef %useLag.sroa.7.0)
  store i64 %call3.i10, ptr %ref.tmp10, align 8
  %call13 = call noundef double @_ZNK8QuantLib13TermStructure17timeFromReferenceERKNS_4DateE(ptr noundef nonnull align 8 dereferenceable(64) %this, ptr noundef nonnull align 8 dereferenceable(8) %ref.tmp10)
  call void @llvm.lifetime.end.p0(i64 8, ptr nonnull %ref.tmp10) #24
  %vtable14 = load ptr, ptr %this, align 8, !tbaa !28
  %vfn15 = getelementptr inbounds i8, ptr %vtable14, i64 192
  %3 = load ptr, ptr %vfn15, align 8
  %call16 = call noundef double %3(ptr noundef nonnull align 8 dereferenceable(112) %this, double noundef %call13, double noundef %strike)
  br label %cleanup

if.else:                                          ; preds = %if.end
  call void @llvm.lifetime.start.p0(i64 16, ptr nonnull %dd) #24
  call void @llvm.lifetime.start.p0(i64 8, ptr nonnull %ref.tmp17) #24
  %sub.i11 = sub nsw i32 0, %useLag.sroa.0.0
  %call3.i13 = call i64 @_ZN8QuantLib4Date7advanceERKS0_iNS_8TimeUnitE(ptr noundef nonnull align 8 dereferenceable(8) %maturityDate, i32 noundef %sub.i11, i32 noundef %useLag.sroa.7.0)
  store i64 %call3.i13, ptr %ref.tmp17, align 8
  %vtable20 = load ptr, ptr %this, align 8, !tbaa !28
  %vfn21 = getelementptr inbounds i8, ptr %vtable20, i64 136
  %4 = load ptr, ptr %vfn21, align 8
  %call22 = call noundef i32 %4(ptr noundef nonnull align 8 dereferenceable(112) %this)
  %call23 = call { i64, i64 } @_ZN8QuantLib15inflationPeriodERKNS_4DateENS_9FrequencyE(ptr noundef nonnull align 8 dereferenceable(8) %ref.tmp17, i32 noundef %call22)
  %5 = extractvalue { i64, i64 } %call23, 0
  store i64 %5, ptr %dd, align 8
  %6 = getelementptr inbounds nuw i8, ptr %dd, i64 8
  %7 = extractvalue { i64, i64 } %call23, 1
  store i64 %7, ptr %6, align 8
  call void @llvm.lifetime.end.p0(i64 8, ptr nonnull %ref.tmp17) #24
  call void @_ZNK8QuantLib29YoYOptionletVolatilitySurface10checkRangeERKNS_4DateEdb(ptr noundef nonnull align 8 dereferenceable(112) %this, ptr noundef nonnull align 8 dereferenceable(8) %dd, double noundef %strike, i1 noundef zeroext %extrapolate)
  %call27 = call noundef double @_ZNK8QuantLib13TermStructure17timeFromReferenceERKNS_4DateE(ptr noundef nonnull align 8 dereferenceable(64) %this, ptr noundef nonnull align 8 dereferenceable(8) %dd)
  %vtable28 = load ptr, ptr %this, align 8, !tbaa !28
  %vfn29 = getelementptr inbounds i8, ptr %vtable28, i64 192
  %8 = load ptr, ptr %vfn29, align 8
  %call30 = call noundef double %8(ptr noundef nonnull align 8 dereferenceable(112) %this, double noundef %call27, double noundef %strike)
  call void @llvm.lifetime.end.p0(i64 16, ptr nonnull %dd) #24
  br label %cleanup

cleanup:                                          ; preds = %if.else, %if.then7
  %retval.0 = phi double [ %call16, %if.then7 ], [ %call30, %if.else ]
  ret double %retval.0
}